target datalayout = "e-m:e-p270:32:32-p271:32:32-p272:64:64-i64:64-i128:128-f80:128-n8:16:32:64-S128"
target triple = "x86_64-pc-linux-gnu"

%struct.ExpireMeta = type { i32, i16, i16, ptr }
%struct.redisObject = type { i32, i32, ptr }

@mstrFieldKind = dso_local global { ptr, <{ i32, [15 x i32] }> } { ptr @.str, <{ i32, [15 x i32] }> <{ i32 16, [15 x i32] zeroinitializer }> }, align 8
@.str.2 = private unnamed_addr constant [9 x i8] c"t_hash.c\00", align 1
@.str.10 = private unnamed_addr constant [31 x i8] c"o->encoding == OBJ_ENCODING_HT\00", align 1

; Function Attrs: inlinehint nounwind uwtable
define internal i32 @mstrGetFlag(ptr noundef %0, i32 noundef %1) #7 {
  %3 = alloca ptr, align 8
  %4 = alloca i32, align 4
  store ptr %0, ptr %3, align 8, !tbaa !33
  store i32 %1, ptr %4, align 4, !tbaa !13
  %5 = load ptr, ptr %3, align 8, !tbaa !33
  %6 = call ptr @mstrFlagsRef(ptr noundef %5)
  %7 = load i16, ptr %6, align 2, !tbaa !96
  %8 = zext i16 %7 to i32
  %9 = load i32, ptr %4, align 4, !tbaa !13
  %10 = shl i32 1, %9
  %11 = and i32 %8, %10
  ret i32 %11
}

; Function Attrs: inlinehint nounwind uwtable
define internal i32 @mstrIsMetaAttached(ptr noundef %0) #7 {
  %2 = alloca ptr, align 8
  store ptr %0, ptr %2, align 8, !tbaa !33
  %3 = load ptr, ptr %2, align 8, !tbaa !33
  %4 = getelementptr inbounds i8, ptr %3, i64 -1
  %5 = load i8, ptr %4, align 1, !tbaa !95
  %6 = sext i8 %5 to i32
  %7 = and i32 %6, 4
  ret i32 %7
}

; Function Attrs: inlinehint nounwind uwtable
define internal i64 @ebGetMetaExpTime(ptr noundef %0) #7 {
  %2 = alloca ptr, align 8
  store ptr %0, ptr %2, align 8, !tbaa !72
  %3 = load ptr, ptr %2, align 8, !tbaa !72
  %4 = getelementptr inbounds nuw %struct.ExpireMeta, ptr %3, i32 0, i32 1
  %5 = load i16, ptr %4, align 4, !tbaa !146
  %6 = zext i16 %5 to i64
  %7 = shl i64 %6, 32
  %8 = load ptr, ptr %2, align 8, !tbaa !72
  %9 = getelementptr inbounds nuw %struct.ExpireMeta, ptr %8, i32 0, i32 0
  %10 = load i32, ptr %9, align 8, !tbaa !147
  %11 = zext i32 %10 to i64
  %12 = or i64 %7, %11
  ret i64 %12
}

; Function Attrs: nounwind uwtable
define dso_local i32 @hfieldIsExpireAttached(ptr noundef %0) #1 {
  %2 = alloca ptr, align 8
  store ptr %0, ptr %2, align 8, !tbaa !33
  %3 = load ptr, ptr %2, align 8, !tbaa !33
  %4 = call i32 @mstrIsMetaAttached(ptr noundef %3)
  %5 = icmp ne i32 %4, 0
  br i1 %5, label %6, label %10

6:                                                ; preds = %1
  %7 = load ptr, ptr %2, align 8, !tbaa !33
  %8 = call i32 @mstrGetFlag(ptr noundef %7, i32 noundef 0)
  %9 = icmp ne i32 %8, 0
  br label %10

10:                                               ; preds = %6, %1
  %11 = phi i1 [ false, %1 ], [ %9, %6 ]
  %12 = zext i1 %11 to i32
  ret i32 %12
}

; Function Attrs: nounwind uwtable
define dso_local i64 @hfieldGetExpireTime(ptr noundef %0) #1 {
  %2 = alloca i64, align 8
  %3 = alloca ptr, align 8
  %4 = alloca ptr, align 8
  %5 = alloca i32, align 4
  store ptr %0, ptr %3, align 8, !tbaa !33
  %6 = load ptr, ptr %3, align 8, !tbaa !33
  %7 = call i32 @hfieldIsExpireAttached(ptr noundef %6)
  %8 = icmp ne i32 %7, 0
  br i1 %8, label %10, label %9

9:                                                ; preds = %1
  store i64 281474976710656, ptr %2, align 8
  br label %25

10:                                               ; preds = %1
  call void @llvm.lifetime.start.p0(i64 8, ptr %4) #12
  %11 = load ptr, ptr %3, align 8, !tbaa !33
  %12 = call ptr @mstrMetaRef(ptr noundef %11, ptr noundef @mstrFieldKind, i32 noundef 0)
  store ptr %12, ptr %4, align 8, !tbaa !72
  %13 = load ptr, ptr %4, align 8, !tbaa !72
  %14 = getelementptr inbounds nuw %struct.ExpireMeta, ptr %13, i32 0, i32 2
  %15 = load i16, ptr %14, align 2
  %16 = lshr i16 %15, 8
  %17 = and i16 %16, 1
  %18 = zext i16 %17 to i32
  %19 = icmp ne i32 %18, 0
  br i1 %19, label %20, label %21

20:                                               ; preds = %10
  store i64 281474976710656, ptr %2, align 8
  store i32 1, ptr %5, align 4
  br label %24

21:                                               ; preds = %10
  %22 = load ptr, ptr %4, align 8, !tbaa !72
  %23 = call i64 @ebGetMetaExpTime(ptr noundef %22)
  store i64 %23, ptr %2, align 8
  store i32 1, ptr %5, align 4
  br label %24

24:                                               ; preds = %21, %20
  call void @llvm.lifetime.end.p0(i64 8, ptr %4) #12
  br label %25

25:                                               ; preds = %24, %9
  %26 = load i64, ptr %2, align 8
  ret i64 %26
}

; Function Attrs: nounwind uwtable
define dso_local i32 @hashTypeGetFromHashTable(ptr noundef %0, ptr noundef %1, ptr noundef %2, ptr noundef %3) #1 {
  %5 = alloca i32, align 4
  %6 = alloca ptr, align 8
  %7 = alloca ptr, align 8
  %8 = alloca ptr, align 8
  %9 = alloca ptr, align 8
  %10 = alloca ptr, align 8
  %11 = alloca i32, align 4
  store ptr %0, ptr %6, align 8, !tbaa !15
  store ptr %1, ptr %7, align 8, !tbaa !33
  store ptr %2, ptr %8, align 8, !tbaa !102
  store ptr %3, ptr %9, align 8, !tbaa !107
  call void @llvm.lifetime.start.p0(i64 8, ptr %10) #12
  %12 = load ptr, ptr %9, align 8, !tbaa !107
  store i64 281474976710656, ptr %12, align 8, !tbaa !31
  %13 = load ptr, ptr %6, align 8, !tbaa !15
  %14 = load i32, ptr %13, align 8
  %15 = lshr i32 %14, 4
  %16 = and i32 %15, 15
  %17 = icmp eq i32 %16, 2
  %18 = xor i1 %17, true
  %19 = xor i1 %18, true
  %20 = zext i1 %19 to i32
  %21 = sext i32 %20 to i64
  %22 = call i64 @llvm.expect.i64(i64 %21, i64 1)
  %23 = icmp ne i64 %22, 0
  br i1 %23, label %24, label %25

24:                                               ; preds = %4
  br label %27

25:                                               ; preds = %4
  call void @_serverAssert(ptr noundef @.str.10, ptr noundef @.str.2, i32 noundef 694)
  call void @abort() #14
  unreachable

26:                                               ; No predecessors!
  br label %27

27:                                               ; preds = %26, %24
  %28 = load ptr, ptr %6, align 8, !tbaa !15
  %29 = getelementptr inbounds nuw %struct.redisObject, ptr %28, i32 0, i32 2
  %30 = load ptr, ptr %29, align 8, !tbaa !17
  %31 = load ptr, ptr %7, align 8, !tbaa !33
  %32 = call ptr @dictFind(ptr noundef %30, ptr noundef %31)
  store ptr %32, ptr %10, align 8, !tbaa !109
  %33 = load ptr, ptr %10, align 8, !tbaa !109
  %34 = icmp eq ptr %33, null
  br i1 %34, label %35, label %36

35:                                               ; preds = %27
  store i32 1, ptr %5, align 4
  store i32 1, ptr %11, align 4
  br label %44

36:                                               ; preds = %27
  %37 = load ptr, ptr %10, align 8, !tbaa !109
  %38 = call ptr @dictGetKey(ptr noundef %37)
  %39 = call i64 @hfieldGetExpireTime(ptr noundef %38)
  %40 = load ptr, ptr %9, align 8, !tbaa !107
  store i64 %39, ptr %40, align 8, !tbaa !31
  %41 = load ptr, ptr %10, align 8, !tbaa !109
  %42 = call ptr @dictGetVal(ptr noundef %41)
  %43 = load ptr, ptr %8, align 8, !tbaa !102
  store ptr %42, ptr %43, align 8, !tbaa !33
  store i32 0, ptr %5, align 4
  store i32 1, ptr %11, align 4
  br label %44

44:                                               ; preds = %36, %35
  call void @llvm.lifetime.end.p0(i64 8, ptr %10) #12
  %45 = load i32, ptr %5, align 4
  ret i32 %45
}