; Function Attrs: nounwind uwtable
define dso_local range(i32 0, 2) i32 @hashTypeGetFromHashTable(ptr noundef readonly captures(none) %0, ptr noundef %1, ptr noundef writeonly captures(none) %2, ptr noundef writeonly captures(none) initializes((0, 8)) %3) local_unnamed_addr #1 {
  store i64 281474976710656, ptr %3, align 8, !tbaa !28
  %5 = load i32, ptr %0, align 8
  %6 = and i32 %5, 240
  %7 = icmp eq i32 %6, 32
  br i1 %7, label %9, label %8, !prof !14

8:                                                ; preds = %4
  tail call void @_serverAssert(ptr noundef nonnull @.str.10, ptr noundef nonnull @.str.2, i32 noundef 694) #16
  tail call void @abort() #17
  unreachable

9:                                                ; preds = %4
  %10 = getelementptr inbounds nuw i8, ptr %0, i64 8
  %11 = load ptr, ptr %10, align 8, !tbaa !10
  %12 = tail call ptr @dictFind(ptr noundef %11, ptr noundef %1) #16
  %13 = icmp eq ptr %12, null
  br i1 %13, label %33, label %14

14:                                               ; preds = %9
  %15 = tail call ptr @dictGetKey(ptr noundef nonnull %12) #16
  %16 = getelementptr i8, ptr %15, i64 -1
  %.val.i.i = load i8, ptr %16, align 1, !tbaa !5
  %17 = and i8 %.val.i.i, 4
  %.not.i.i = icmp eq i8 %17, 0
  br i1 %.not.i.i, label %hfieldGetExpireTime.exit, label %hfieldIsExpireAttached.exit.i

hfieldIsExpireAttached.exit.i:                    ; preds = %14
  %18 = tail call ptr @mstrFlagsRef(ptr noundef nonnull %15) #16
  %19 = load i16, ptr %18, align 2, !tbaa !8
  %20 = and i16 %19, 1
  %.not.i = icmp eq i16 %20, 0
  br i1 %.not.i, label %hfieldGetExpireTime.exit, label %21

21:                                               ; preds = %hfieldIsExpireAttached.exit.i
  %22 = tail call ptr @mstrMetaRef(ptr noundef nonnull %15, ptr noundef nonnull @mstrFieldKind, i32 noundef 0) #16
  %23 = getelementptr inbounds nuw i8, ptr %22, i64 6
  %24 = load i16, ptr %23, align 2
  %25 = and i16 %24, 256
  %.not4.i = icmp eq i16 %25, 0
  br i1 %.not4.i, label %26, label %hfieldGetExpireTime.exit

26:                                               ; preds = %21
  %.val.i = load i32, ptr %22, align 8, !tbaa !69
  %27 = getelementptr i8, ptr %22, i64 4
  %.val5.i = load i16, ptr %27, align 4, !tbaa !70
  %28 = zext i16 %.val5.i to i64
  %29 = shl nuw nsw i64 %28, 32
  %30 = zext i32 %.val.i to i64
  %31 = or disjoint i64 %29, %30
  br label %hfieldGetExpireTime.exit

hfieldGetExpireTime.exit:                         ; preds = %14, %hfieldIsExpireAttached.exit.i, %21, %26
  %.0.i = phi i64 [ 281474976710656, %hfieldIsExpireAttached.exit.i ], [ %31, %26 ], [ 281474976710656, %21 ], [ 281474976710656, %14 ]
  store i64 %.0.i, ptr %3, align 8, !tbaa !28
  %32 = tail call ptr @dictGetVal(ptr noundef nonnull %12) #16
  store ptr %32, ptr %2, align 8, !tbaa !85
  br label %33

33:                                               ; preds = %9, %hfieldGetExpireTime.exit
  %.0 = phi i32 [ 0, %hfieldGetExpireTime.exit ], [ 1, %9 ]
  ret i32 %.0
}